; Function Attrs: nounwind uwtable
define dso_local zeroext i1 @gistKeyIsEQ(ptr noundef %0, i32 noundef %1, i64 noundef %2, i64 noundef %3) local_unnamed_addr #0 {
  %5 = alloca i8, align 1
  call void @llvm.lifetime.start.p0(i64 1, ptr nonnull %5) #11
  store i8 0, ptr %5, align 1
  %6 = getelementptr inbounds nuw i8, ptr %0, i64 9256
  %7 = sext i32 %1 to i64
  %8 = getelementptr inbounds [32 x %struct.FmgrInfo], ptr %6, i64 0, i64 %7
  %9 = getelementptr inbounds nuw i8, ptr %0, i64 13864
  %10 = getelementptr inbounds [32 x i32], ptr %9, i64 0, i64 %7
  %11 = load i32, ptr %10, align 4
  %12 = ptrtoint ptr %5 to i64
  %13 = call i64 @FunctionCall3Coll(ptr noundef nonnull %8, i32 noundef %11, i64 noundef %2, i64 noundef %3, i64 noundef %12) #11
  %14 = load i8, ptr %5, align 1, !range !12, !noundef !13
  %15 = trunc nuw i8 %14 to i1
  call void @llvm.lifetime.end.p0(i64 1, ptr nonnull %5) #11
  ret i1 %15
}